target datalayout = "e-m:e-p270:32:32-p271:32:32-p272:64:64-i64:64-i128:128-f80:128-n8:16:32:64-S128"
target triple = "x86_64-pc-linux-gnu"

; Function Attrs: mustprogress nounwind uwtable
define internal noundef signext i8 @_ZL14prepareReorderPKhiPiPhS2_(ptr noundef %0, i32 noundef %1, ptr noundef %2, ptr noundef %3, ptr noundef %4) #4 {
  %6 = alloca i8, align 1
  %7 = alloca ptr, align 8
  %8 = alloca i32, align 4
  %9 = alloca ptr, align 8
  %10 = alloca ptr, align 8
  %11 = alloca ptr, align 8
  %12 = alloca i32, align 4
  %13 = alloca i8, align 1
  %14 = alloca i8, align 1
  %15 = alloca i8, align 1
  %16 = alloca i32, align 4
  store ptr %0, ptr %7, align 8, !tbaa !50
  store i32 %1, ptr %8, align 4, !tbaa !8
  store ptr %2, ptr %9, align 8, !tbaa !57
  store ptr %3, ptr %10, align 8, !tbaa !50
  store ptr %4, ptr %11, align 8, !tbaa !50
  call void @llvm.lifetime.start.p0(i64 4, ptr %12) #8
  call void @llvm.lifetime.start.p0(i64 1, ptr %13) #8
  call void @llvm.lifetime.start.p0(i64 1, ptr %14) #8
  call void @llvm.lifetime.start.p0(i64 1, ptr %15) #8
  %17 = load ptr, ptr %7, align 8, !tbaa !50
  %18 = icmp eq ptr %17, null
  br i1 %18, label %22, label %19

19:                                               ; preds = %5
  %20 = load i32, ptr %8, align 4, !tbaa !8
  %21 = icmp sle i32 %20, 0
  br i1 %21, label %22, label %23

22:                                               ; preds = %19, %5
  store i8 0, ptr %6, align 1
  store i32 1, ptr %16, align 4
  br label %74

23:                                               ; preds = %19
  store i8 126, ptr %14, align 1, !tbaa !51
  store i8 0, ptr %15, align 1, !tbaa !51
  %24 = load i32, ptr %8, align 4, !tbaa !8
  store i32 %24, ptr %12, align 4, !tbaa !8
  br label %25

25:                                               ; preds = %55, %23
  %26 = load i32, ptr %12, align 4, !tbaa !8
  %27 = icmp sgt i32 %26, 0
  br i1 %27, label %28, label %56

28:                                               ; preds = %25
  %29 = load ptr, ptr %7, align 8, !tbaa !50
  %30 = load i32, ptr %12, align 4, !tbaa !8
  %31 = add nsw i32 %30, -1
  store i32 %31, ptr %12, align 4, !tbaa !8
  %32 = sext i32 %31 to i64
  %33 = getelementptr inbounds i8, ptr %29, i64 %32
  %34 = load i8, ptr %33, align 1, !tbaa !51
  store i8 %34, ptr %13, align 1, !tbaa !51
  %35 = load i8, ptr %13, align 1, !tbaa !51
  %36 = zext i8 %35 to i32
  %37 = icmp sgt i32 %36, 126
  br i1 %37, label %38, label %39

38:                                               ; preds = %28
  store i8 0, ptr %6, align 1
  store i32 1, ptr %16, align 4
  br label %74

39:                                               ; preds = %28
  %40 = load i8, ptr %13, align 1, !tbaa !51
  %41 = zext i8 %40 to i32
  %42 = load i8, ptr %14, align 1, !tbaa !51
  %43 = zext i8 %42 to i32
  %44 = icmp slt i32 %41, %43
  br i1 %44, label %45, label %47

45:                                               ; preds = %39
  %46 = load i8, ptr %13, align 1, !tbaa !51
  store i8 %46, ptr %14, align 1, !tbaa !51
  br label %47

47:                                               ; preds = %45, %39
  %48 = load i8, ptr %13, align 1, !tbaa !51
  %49 = zext i8 %48 to i32
  %50 = load i8, ptr %15, align 1, !tbaa !51
  %51 = zext i8 %50 to i32
  %52 = icmp sgt i32 %49, %51
  br i1 %52, label %53, label %55

53:                                               ; preds = %47
  %54 = load i8, ptr %13, align 1, !tbaa !51
  store i8 %54, ptr %15, align 1, !tbaa !51
  br label %55

55:                                               ; preds = %53, %47
  br label %25, !llvm.loop !93

56:                                               ; preds = %25
  %57 = load i8, ptr %14, align 1, !tbaa !51
  %58 = load ptr, ptr %10, align 8, !tbaa !50
  store i8 %57, ptr %58, align 1, !tbaa !51
  %59 = load i8, ptr %15, align 1, !tbaa !51
  %60 = load ptr, ptr %11, align 8, !tbaa !50
  store i8 %59, ptr %60, align 1, !tbaa !51
  %61 = load i32, ptr %8, align 4, !tbaa !8
  store i32 %61, ptr %12, align 4, !tbaa !8
  br label %62

62:                                               ; preds = %65, %56
  %63 = load i32, ptr %12, align 4, !tbaa !8
  %64 = icmp sgt i32 %63, 0
  br i1 %64, label %65, label %73

65:                                               ; preds = %62
  %66 = load i32, ptr %12, align 4, !tbaa !8
  %67 = add nsw i32 %66, -1
  store i32 %67, ptr %12, align 4, !tbaa !8
  %68 = load i32, ptr %12, align 4, !tbaa !8
  %69 = load ptr, ptr %9, align 8, !tbaa !57
  %70 = load i32, ptr %12, align 4, !tbaa !8
  %71 = sext i32 %70 to i64
  %72 = getelementptr inbounds i32, ptr %69, i64 %71
  store i32 %68, ptr %72, align 4, !tbaa !8
  br label %62, !llvm.loop !94

73:                                               ; preds = %62
  store i8 1, ptr %6, align 1
  store i32 1, ptr %16, align 4
  br label %74

74:                                               ; preds = %73, %38, %22
  call void @llvm.lifetime.end.p0(i64 1, ptr %15) #8
  call void @llvm.lifetime.end.p0(i64 1, ptr %14) #8
  call void @llvm.lifetime.end.p0(i64 1, ptr %13) #8
  call void @llvm.lifetime.end.p0(i64 4, ptr %12) #8
  %75 = load i8, ptr %6, align 1
  ret i8 %75
}

; Function Attrs: mustprogress uwtable
define void @ubidi_reorderVisual_77(ptr noundef %0, i32 noundef %1, ptr noundef %2) #0 {
  %4 = alloca ptr, align 8
  %5 = alloca i32, align 4
  %6 = alloca ptr, align 8
  %7 = alloca i32, align 4
  %8 = alloca i32, align 4
  %9 = alloca i32, align 4
  %10 = alloca i32, align 4
  %11 = alloca i8, align 1
  %12 = alloca i8, align 1
  %13 = alloca i32, align 4
  store ptr %0, ptr %4, align 8, !tbaa !50
  store i32 %1, ptr %5, align 4, !tbaa !8
  store ptr %2, ptr %6, align 8, !tbaa !57
  call void @llvm.lifetime.start.p0(i64 4, ptr %7) #8
  call void @llvm.lifetime.start.p0(i64 4, ptr %8) #8
  call void @llvm.lifetime.start.p0(i64 4, ptr %9) #8
  call void @llvm.lifetime.start.p0(i64 4, ptr %10) #8
  call void @llvm.lifetime.start.p0(i64 1, ptr %11) #8
  store i8 0, ptr %11, align 1, !tbaa !51
  call void @llvm.lifetime.start.p0(i64 1, ptr %12) #8
  store i8 0, ptr %12, align 1, !tbaa !51
  %14 = load ptr, ptr %6, align 8, !tbaa !57
  %15 = icmp eq ptr %14, null
  br i1 %15, label %22, label %16

16:                                               ; preds = %3
  %17 = load ptr, ptr %4, align 8, !tbaa !50
  %18 = load i32, ptr %5, align 4, !tbaa !8
  %19 = load ptr, ptr %6, align 8, !tbaa !57
  %20 = call noundef signext i8 @_ZL14prepareReorderPKhiPiPhS2_(ptr noundef %17, i32 noundef %18, ptr noundef %19, ptr noundef %11, ptr noundef %12)
  %21 = icmp ne i8 %20, 0
  br i1 %21, label %23, label %22

22:                                               ; preds = %16, %3
  store i32 1, ptr %13, align 4
  br label %135

23:                                               ; preds = %16
  %24 = load i8, ptr %11, align 1, !tbaa !51
  %25 = zext i8 %24 to i32
  %26 = load i8, ptr %12, align 1, !tbaa !51
  %27 = zext i8 %26 to i32
  %28 = icmp eq i32 %25, %27
  br i1 %28, label %29, label %35

29:                                               ; preds = %23
  %30 = load i8, ptr %11, align 1, !tbaa !51
  %31 = zext i8 %30 to i32
  %32 = and i32 %31, 1
  %33 = icmp eq i32 %32, 0
  br i1 %33, label %34, label %35

34:                                               ; preds = %29
  store i32 1, ptr %13, align 4
  br label %135

35:                                               ; preds = %29, %23
  %36 = load i8, ptr %11, align 1, !tbaa !51
  %37 = zext i8 %36 to i32
  %38 = or i32 %37, 1
  %39 = trunc i32 %38 to i8
  store i8 %39, ptr %11, align 1, !tbaa !51
  br label %40

40:                                               ; preds = %127, %35
  store i32 0, ptr %7, align 4, !tbaa !8
  br label %41

41:                                               ; preds = %125, %40
  br label %42

42:                                               ; preds = %58, %41
  %43 = load i32, ptr %7, align 4, !tbaa !8
  %44 = load i32, ptr %5, align 4, !tbaa !8
  %45 = icmp slt i32 %43, %44
  br i1 %45, label %46, label %56

46:                                               ; preds = %42
  %47 = load ptr, ptr %4, align 8, !tbaa !50
  %48 = load i32, ptr %7, align 4, !tbaa !8
  %49 = sext i32 %48 to i64
  %50 = getelementptr inbounds i8, ptr %47, i64 %49
  %51 = load i8, ptr %50, align 1, !tbaa !51
  %52 = zext i8 %51 to i32
  %53 = load i8, ptr %12, align 1, !tbaa !51
  %54 = zext i8 %53 to i32
  %55 = icmp slt i32 %52, %54
  br label %56

56:                                               ; preds = %46, %42
  %57 = phi i1 [ false, %42 ], [ %55, %46 ]
  br i1 %57, label %58, label %61

58:                                               ; preds = %56
  %59 = load i32, ptr %7, align 4, !tbaa !8
  %60 = add nsw i32 %59, 1
  store i32 %60, ptr %7, align 4, !tbaa !8
  br label %42, !llvm.loop !95

61:                                               ; preds = %56
  %62 = load i32, ptr %7, align 4, !tbaa !8
  %63 = load i32, ptr %5, align 4, !tbaa !8
  %64 = icmp sge i32 %62, %63
  br i1 %64, label %65, label %66

65:                                               ; preds = %61
  br label %126

66:                                               ; preds = %61
  %67 = load i32, ptr %7, align 4, !tbaa !8
  store i32 %67, ptr %9, align 4, !tbaa !8
  br label %68

68:                                               ; preds = %85, %66
  %69 = load i32, ptr %9, align 4, !tbaa !8
  %70 = add nsw i32 %69, 1
  store i32 %70, ptr %9, align 4, !tbaa !8
  %71 = load i32, ptr %5, align 4, !tbaa !8
  %72 = icmp slt i32 %70, %71
  br i1 %72, label %73, label %83

73:                                               ; preds = %68
  %74 = load ptr, ptr %4, align 8, !tbaa !50
  %75 = load i32, ptr %9, align 4, !tbaa !8
  %76 = sext i32 %75 to i64
  %77 = getelementptr inbounds i8, ptr %74, i64 %76
  %78 = load i8, ptr %77, align 1, !tbaa !51
  %79 = zext i8 %78 to i32
  %80 = load i8, ptr %12, align 1, !tbaa !51
  %81 = zext i8 %80 to i32
  %82 = icmp sge i32 %79, %81
  br label %83

83:                                               ; preds = %73, %68
  %84 = phi i1 [ false, %68 ], [ %82, %73 ]
  br i1 %84, label %85, label %86

85:                                               ; preds = %83
  br label %68, !llvm.loop !96

86:                                               ; preds = %83
  %87 = load i32, ptr %9, align 4, !tbaa !8
  %88 = sub nsw i32 %87, 1
  store i32 %88, ptr %8, align 4, !tbaa !8
  br label %89

89:                                               ; preds = %93, %86
  %90 = load i32, ptr %7, align 4, !tbaa !8
  %91 = load i32, ptr %8, align 4, !tbaa !8
  %92 = icmp slt i32 %90, %91
  br i1 %92, label %93, label %117

93:                                               ; preds = %89
  %94 = load ptr, ptr %6, align 8, !tbaa !57
  %95 = load i32, ptr %7, align 4, !tbaa !8
  %96 = sext i32 %95 to i64
  %97 = getelementptr inbounds i32, ptr %94, i64 %96
  %98 = load i32, ptr %97, align 4, !tbaa !8
  store i32 %98, ptr %10, align 4, !tbaa !8
  %99 = load ptr, ptr %6, align 8, !tbaa !57
  %100 = load i32, ptr %8, align 4, !tbaa !8
  %101 = sext i32 %100 to i64
  %102 = getelementptr inbounds i32, ptr %99, i64 %101
  %103 = load i32, ptr %102, align 4, !tbaa !8
  %104 = load ptr, ptr %6, align 8, !tbaa !57
  %105 = load i32, ptr %7, align 4, !tbaa !8
  %106 = sext i32 %105 to i64
  %107 = getelementptr inbounds i32, ptr %104, i64 %106
  store i32 %103, ptr %107, align 4, !tbaa !8
  %108 = load i32, ptr %10, align 4, !tbaa !8
  %109 = load ptr, ptr %6, align 8, !tbaa !57
  %110 = load i32, ptr %8, align 4, !tbaa !8
  %111 = sext i32 %110 to i64
  %112 = getelementptr inbounds i32, ptr %109, i64 %111
  store i32 %108, ptr %112, align 4, !tbaa !8
  %113 = load i32, ptr %7, align 4, !tbaa !8
  %114 = add nsw i32 %113, 1
  store i32 %114, ptr %7, align 4, !tbaa !8
  %115 = load i32, ptr %8, align 4, !tbaa !8
  %116 = add nsw i32 %115, -1
  store i32 %116, ptr %8, align 4, !tbaa !8
  br label %89, !llvm.loop !97

117:                                              ; preds = %89
  %118 = load i32, ptr %9, align 4, !tbaa !8
  %119 = load i32, ptr %5, align 4, !tbaa !8
  %120 = icmp eq i32 %118, %119
  br i1 %120, label %121, label %122

121:                                              ; preds = %117
  br label %126

122:                                              ; preds = %117
  %123 = load i32, ptr %9, align 4, !tbaa !8
  %124 = add nsw i32 %123, 1
  store i32 %124, ptr %7, align 4, !tbaa !8
  br label %125

125:                                              ; preds = %122
  br label %41, !llvm.loop !98

126:                                              ; preds = %121, %65
  br label %127

127:                                              ; preds = %126
  %128 = load i8, ptr %12, align 1, !tbaa !51
  %129 = add i8 %128, -1
  store i8 %129, ptr %12, align 1, !tbaa !51
  %130 = zext i8 %129 to i32
  %131 = load i8, ptr %11, align 1, !tbaa !51
  %132 = zext i8 %131 to i32
  %133 = icmp sge i32 %130, %132
  br i1 %133, label %40, label %134, !llvm.loop !99

134:                                              ; preds = %127
  store i32 0, ptr %13, align 4
  br label %135

135:                                              ; preds = %134, %34, %22
  call void @llvm.lifetime.end.p0(i64 1, ptr %12) #8
  call void @llvm.lifetime.end.p0(i64 1, ptr %11) #8
  call void @llvm.lifetime.end.p0(i64 4, ptr %10) #8
  call void @llvm.lifetime.end.p0(i64 4, ptr %9) #8
  call void @llvm.lifetime.end.p0(i64 4, ptr %8) #8
  call void @llvm.lifetime.end.p0(i64 4, ptr %7) #8
  %136 = load i32, ptr %13, align 4
  switch i32 %136, label %138 [
    i32 0, label %137
    i32 1, label %137
  ]

137:                                              ; preds = %135, %135
  ret void

138:                                              ; preds = %135
  unreachable
}