; Function Attrs: mustprogress nofree norecurse nosync nounwind memory(argmem: readwrite) uwtable
define void @ubidi_reorderVisual_77(ptr noundef readonly %0, i32 noundef %1, ptr noundef %2) local_unnamed_addr #6 {
  %4 = icmp eq ptr %2, null
  br i1 %4, label %_ZL14prepareReorderPKhiPiPhS2_.exit.thread, label %5

5:                                                ; preds = %3
  %6 = icmp eq ptr %0, null
  %7 = icmp slt i32 %1, 1
  %or.cond.i = or i1 %6, %7
  br i1 %or.cond.i, label %_ZL14prepareReorderPKhiPiPhS2_.exit.thread, label %.preheader.preheader.i

.preheader.preheader.i:                           ; preds = %5
  %8 = zext nneg i32 %1 to i64
  br label %.preheader.i

.preheader.i:                                     ; preds = %12, %.preheader.preheader.i
  %indvars.iv.i = phi i64 [ %8, %.preheader.preheader.i ], [ %indvars.iv.next.i, %12 ]
  %.037.i = phi i8 [ 0, %.preheader.preheader.i ], [ %.1.i, %12 ]
  %.02436.i = phi i8 [ 126, %.preheader.preheader.i ], [ %spec.select.i, %12 ]
  %indvars.iv.next.i = add nsw i64 %indvars.iv.i, -1
  %9 = getelementptr inbounds nuw i8, ptr %0, i64 %indvars.iv.next.i
  %10 = load i8, ptr %9, align 1, !tbaa !47
  %11 = icmp ugt i8 %10, 126
  br i1 %11, label %_ZL14prepareReorderPKhiPiPhS2_.exit.thread, label %12

12:                                               ; preds = %.preheader.i
  %spec.select.i = tail call i8 @llvm.umin.i8(i8 %10, i8 %.02436.i)
  %.1.i = tail call i8 @llvm.umax.i8(i8 %10, i8 %.037.i)
  %13 = icmp samesign ugt i64 %indvars.iv.i, 1
  br i1 %13, label %.preheader.i, label %.lr.ph.i, !llvm.loop !79

.lr.ph.i:                                         ; preds = %12, %.lr.ph.i
  %indvars.iv40.i = phi i64 [ %indvars.iv.next41.i, %.lr.ph.i ], [ %8, %12 ]
  %indvars.iv.next41.i = add nsw i64 %indvars.iv40.i, -1
  %14 = getelementptr inbounds nuw i32, ptr %2, i64 %indvars.iv.next41.i
  %15 = trunc nuw nsw i64 %indvars.iv.next41.i to i32
  store i32 %15, ptr %14, align 4, !tbaa !53
  %16 = icmp sgt i64 %indvars.iv40.i, 1
  br i1 %16, label %.lr.ph.i, label %_ZL14prepareReorderPKhiPiPhS2_.exit, !llvm.loop !80

_ZL14prepareReorderPKhiPiPhS2_.exit:              ; preds = %.lr.ph.i
  %17 = icmp eq i8 %spec.select.i, %.1.i
  %18 = and i8 %spec.select.i, 1
  %19 = icmp eq i8 %18, 0
  %or.cond = and i1 %17, %19
  br i1 %or.cond, label %_ZL14prepareReorderPKhiPiPhS2_.exit.thread, label %20

20:                                               ; preds = %_ZL14prepareReorderPKhiPiPhS2_.exit
  %21 = or i8 %spec.select.i, 1
  %22 = icmp sgt i32 %1, 0
  br i1 %22, label %.lr.ph.lr.ph.us.preheader, label %_ZL14prepareReorderPKhiPiPhS2_.exit.thread

.lr.ph.lr.ph.us.preheader:                        ; preds = %20
  %23 = zext nneg i32 %1 to i64
  br label %.lr.ph.lr.ph.us

.lr.ph.lr.ph.us:                                  ; preds = %.lr.ph.lr.ph.us.preheader, %.critedge.thread.us
  %.051.us = phi i8 [ %37, %.critedge.thread.us ], [ %.1.i, %.lr.ph.lr.ph.us.preheader ]
  br label %.lr.ph.us

24:                                               ; preds = %.lr.ph.us, %43
  %indvars.iv76.in = phi i32 [ %.066.us, %.lr.ph.us ], [ %indvars.iv76, %43 ]
  %indvars.iv = phi i64 [ %45, %.lr.ph.us ], [ %indvars.iv.next, %43 ]
  %indvars.iv76 = add i32 %indvars.iv76.in, 1
  %25 = getelementptr inbounds i8, ptr %0, i64 %indvars.iv
  %26 = load i8, ptr %25, align 1, !tbaa !47
  %27 = icmp ult i8 %26, %.051.us
  br i1 %27, label %43, label %.critedge.preheader.us

.critedge.us:                                     ; preds = %.critedge.preheader.us, %29
  %indvars.iv74 = phi i64 [ %indvars.iv, %.critedge.preheader.us ], [ %indvars.iv.next75, %29 ]
  %indvars.iv.next75 = add nsw i64 %indvars.iv74, 1
  %28 = icmp slt i64 %indvars.iv.next75, %23
  br i1 %28, label %29, label %.critedge2.us

29:                                               ; preds = %.critedge.us
  %30 = getelementptr inbounds i8, ptr %0, i64 %indvars.iv.next75
  %31 = load i8, ptr %30, align 1, !tbaa !47
  %.not42.us = icmp ult i8 %31, %.051.us
  br i1 %.not42.us, label %.critedge2.us.split.loop.exit, label %.critedge.us, !llvm.loop !86

.critedge2.us.split.loop.exit:                    ; preds = %29
  %32 = trunc nsw i64 %indvars.iv.next75 to i32
  br label %.critedge2.us

.critedge2.us:                                    ; preds = %.critedge.us, %.critedge2.us.split.loop.exit
  %.lcssa = phi i32 [ %32, %.critedge2.us.split.loop.exit ], [ %smax, %.critedge.us ]
  %.lcssa93 = trunc i64 %indvars.iv74 to i32
  %33 = icmp slt i64 %indvars.iv, %indvars.iv74
  br i1 %33, label %.lr.ph65.us, label %._crit_edge.us

._crit_edge.us:                                   ; preds = %.lr.ph65.us, %.critedge2.us
  %34 = icmp ne i32 %.lcssa, %1
  %35 = add nsw i32 %.lcssa93, 2
  %36 = icmp slt i32 %35, %1
  %or.cond67 = select i1 %34, i1 %36, i1 false
  br i1 %or.cond67, label %.lr.ph.us, label %.critedge.thread.us, !llvm.loop !87

.critedge.thread.us:                              ; preds = %._crit_edge.us, %43
  %37 = add i8 %.051.us, -1
  %.not43.us = icmp ult i8 %37, %21
  br i1 %.not43.us, label %_ZL14prepareReorderPKhiPiPhS2_.exit.thread, label %.lr.ph.lr.ph.us, !llvm.loop !88

.lr.ph65.us:                                      ; preds = %.critedge2.us, %.lr.ph65.us
  %indvars.iv84 = phi i64 [ %indvars.iv.next85, %.lr.ph65.us ], [ %indvars.iv74, %.critedge2.us ]
  %indvars.iv82 = phi i64 [ %indvars.iv.next83, %.lr.ph65.us ], [ %indvars.iv, %.critedge2.us ]
  %38 = getelementptr inbounds i32, ptr %2, i64 %indvars.iv82
  %39 = load i32, ptr %38, align 4, !tbaa !53
  %40 = getelementptr inbounds i32, ptr %2, i64 %indvars.iv84
  %41 = load i32, ptr %40, align 4, !tbaa !53
  store i32 %41, ptr %38, align 4, !tbaa !53
  store i32 %39, ptr %40, align 4, !tbaa !53
  %indvars.iv.next83 = add nsw i64 %indvars.iv82, 1
  %indvars.iv.next85 = add nsw i64 %indvars.iv84, -1
  %42 = icmp slt i64 %indvars.iv.next83, %indvars.iv.next85
  br i1 %42, label %.lr.ph65.us, label %._crit_edge.us, !llvm.loop !89

43:                                               ; preds = %24
  %indvars.iv.next = add nsw i64 %indvars.iv, 1
  %44 = icmp slt i64 %indvars.iv.next, %23
  br i1 %44, label %24, label %.critedge.thread.us, !llvm.loop !90

.critedge.preheader.us:                           ; preds = %24
  %smax = tail call i32 @llvm.smax.i32(i32 %1, i32 %indvars.iv76)
  br label %.critedge.us

.lr.ph.us:                                        ; preds = %._crit_edge.us, %.lr.ph.lr.ph.us
  %.066.us = phi i32 [ 0, %.lr.ph.lr.ph.us ], [ %35, %._crit_edge.us ]
  %45 = sext i32 %.066.us to i64
  br label %24

_ZL14prepareReorderPKhiPiPhS2_.exit.thread:       ; preds = %.preheader.i, %.critedge.thread.us, %20, %5, %_ZL14prepareReorderPKhiPiPhS2_.exit, %3
  ret void
}